; Function Attrs: mustprogress nofree nounwind willreturn memory(read, inaccessiblemem: none) uwtable
define hidden noundef zeroext i1 @_ZN5osgeo4proj8internal9ends_withERKNSt7__cxx1112basic_stringIcSt11char_traitsIcESaIcEEES9_(ptr noundef nonnull readonly align 8 captures(none) dereferenceable(32) %0, ptr noundef nonnull readonly align 8 captures(none) dereferenceable(32) %1) local_unnamed_addr #5 personality ptr @__gxx_personality_v0 {
  %3 = getelementptr inbounds nuw i8, ptr %0, i64 8
  %4 = load i64, ptr %3, align 8, !tbaa !12
  %5 = getelementptr inbounds nuw i8, ptr %1, i64 8
  %6 = load i64, ptr %5, align 8, !tbaa !12
  %7 = icmp ult i64 %4, %6
  br i1 %7, label %15, label %8

8:                                                ; preds = %2
  %9 = load ptr, ptr %0, align 8, !tbaa !9
  %10 = getelementptr inbounds nuw i8, ptr %9, i64 %4
  %11 = sub i64 0, %6
  %12 = getelementptr inbounds i8, ptr %10, i64 %11
  %13 = load ptr, ptr %1, align 8, !tbaa !9
  %bcmp = tail call i32 @bcmp(ptr %12, ptr %13, i64 %6)
  %14 = icmp eq i32 %bcmp, 0
  br label %15

15:                                               ; preds = %2, %8
  %.0 = phi i1 [ %14, %8 ], [ false, %2 ]
  ret i1 %.0
}